target datalayout = "e-m:e-p270:32:32-p271:32:32-p272:64:64-i64:64-i128:128-f80:128-n8:16:32:64-S128"
target triple = "x86_64-pc-linux-gnu"

@_ZN5clang8charinfo9InfoTableE = external constant [256 x i16], align 16

; Function Attrs: mustprogress nounwind uwtable
define internal void @_ZL16skipToNewlineRawRPKcS0_(ptr noundef nonnull align 8 dereferenceable(8) %0, ptr noundef %1) #0 {
  %3 = alloca ptr, align 8
  %4 = alloca ptr, align 8
  %5 = alloca i32, align 4
  store ptr %0, ptr %3, align 8
  store ptr %1, ptr %4, align 8
  br label %6

6:                                                ; preds = %45, %2
  %7 = load ptr, ptr %3, align 8
  %8 = load ptr, ptr %7, align 8
  %9 = load ptr, ptr %4, align 8
  %10 = icmp eq ptr %8, %9
  br i1 %10, label %11, label %12

11:                                               ; preds = %6
  br label %51

12:                                               ; preds = %6
  %13 = load ptr, ptr %3, align 8
  %14 = load ptr, ptr %13, align 8
  %15 = load ptr, ptr %4, align 8
  %16 = call noundef i32 @_ZL5isEOLPKcS0_(ptr noundef %14, ptr noundef %15)
  store i32 %16, ptr %5, align 4
  %17 = load i32, ptr %5, align 4
  %18 = icmp ne i32 %17, 0
  br i1 %18, label %19, label %20

19:                                               ; preds = %12
  br label %51

20:                                               ; preds = %12
  br label %21

21:                                               ; preds = %33, %20
  %22 = load ptr, ptr %3, align 8
  %23 = load ptr, ptr %22, align 8
  %24 = getelementptr inbounds i8, ptr %23, i32 1
  store ptr %24, ptr %22, align 8
  %25 = load ptr, ptr %4, align 8
  %26 = icmp eq ptr %24, %25
  br i1 %26, label %27, label %28

27:                                               ; preds = %21
  br label %51

28:                                               ; preds = %21
  %29 = load ptr, ptr %3, align 8
  %30 = load ptr, ptr %29, align 8
  %31 = load ptr, ptr %4, align 8
  %32 = call noundef i32 @_ZL5isEOLPKcS0_(ptr noundef %30, ptr noundef %31)
  store i32 %32, ptr %5, align 4
  br label %33

33:                                               ; preds = %28
  %34 = load i32, ptr %5, align 4
  %35 = icmp ne i32 %34, 0
  %36 = xor i1 %35, true
  br i1 %36, label %21, label %37, !llvm.loop !14

37:                                               ; preds = %33
  %38 = load ptr, ptr %3, align 8
  %39 = load ptr, ptr %38, align 8
  %40 = getelementptr inbounds i8, ptr %39, i64 -1
  %41 = load i8, ptr %40, align 1
  %42 = sext i8 %41 to i32
  %43 = icmp ne i32 %42, 92
  br i1 %43, label %44, label %45

44:                                               ; preds = %37
  br label %51

45:                                               ; preds = %37
  %46 = load i32, ptr %5, align 4
  %47 = load ptr, ptr %3, align 8
  %48 = load ptr, ptr %47, align 8
  %49 = zext i32 %46 to i64
  %50 = getelementptr inbounds i8, ptr %48, i64 %49
  store ptr %50, ptr %47, align 8
  br label %6, !llvm.loop !15

51:                                               ; preds = %44, %27, %19, %11
  ret void
}

; Function Attrs: mustprogress nounwind uwtable
define internal noundef i32 @_ZL5isEOLPKcS0_(ptr noundef %0, ptr noundef %1) #0 {
  %3 = alloca i32, align 4
  %4 = alloca ptr, align 8
  %5 = alloca ptr, align 8
  store ptr %0, ptr %4, align 8
  store ptr %1, ptr %5, align 8
  %6 = load ptr, ptr %4, align 8
  %7 = load ptr, ptr %5, align 8
  %8 = icmp eq ptr %6, %7
  br i1 %8, label %9, label %10

9:                                                ; preds = %2
  store i32 0, ptr %3, align 4
  br label %46

10:                                               ; preds = %2
  %11 = load ptr, ptr %5, align 8
  %12 = load ptr, ptr %4, align 8
  %13 = ptrtoint ptr %11 to i64
  %14 = ptrtoint ptr %12 to i64
  %15 = sub i64 %13, %14
  %16 = icmp sgt i64 %15, 1
  br i1 %16, label %17, label %38

17:                                               ; preds = %10
  %18 = load ptr, ptr %4, align 8
  %19 = getelementptr inbounds i8, ptr %18, i64 0
  %20 = load i8, ptr %19, align 1
  %21 = call noundef zeroext i1 @_ZN5clang20isVerticalWhitespaceEh(i8 noundef zeroext %20) #9
  br i1 %21, label %22, label %38

22:                                               ; preds = %17
  %23 = load ptr, ptr %4, align 8
  %24 = getelementptr inbounds i8, ptr %23, i64 1
  %25 = load i8, ptr %24, align 1
  %26 = call noundef zeroext i1 @_ZN5clang20isVerticalWhitespaceEh(i8 noundef zeroext %25) #9
  br i1 %26, label %27, label %38

27:                                               ; preds = %22
  %28 = load ptr, ptr %4, align 8
  %29 = getelementptr inbounds i8, ptr %28, i64 0
  %30 = load i8, ptr %29, align 1
  %31 = sext i8 %30 to i32
  %32 = load ptr, ptr %4, align 8
  %33 = getelementptr inbounds i8, ptr %32, i64 1
  %34 = load i8, ptr %33, align 1
  %35 = sext i8 %34 to i32
  %36 = icmp ne i32 %31, %35
  br i1 %36, label %37, label %38

37:                                               ; preds = %27
  store i32 2, ptr %3, align 4
  br label %46

38:                                               ; preds = %27, %22, %17, %10
  %39 = load ptr, ptr %4, align 8
  %40 = getelementptr inbounds i8, ptr %39, i64 0
  %41 = load i8, ptr %40, align 1
  %42 = call noundef zeroext i1 @_ZN5clang20isVerticalWhitespaceEh(i8 noundef zeroext %41) #9
  %43 = xor i1 %42, true
  %44 = xor i1 %43, true
  %45 = zext i1 %44 to i32
  store i32 %45, ptr %3, align 4
  br label %46

46:                                               ; preds = %38, %37, %9
  %47 = load i32, ptr %3, align 4
  ret i32 %47
}

; Function Attrs: mustprogress nounwind willreturn memory(read) uwtable
define linkonce_odr hidden noundef zeroext i1 @_ZN5clang22isHorizontalWhitespaceEh(i8 noundef zeroext %0) #5 comdat {
  %2 = alloca i8, align 1
  store i8 %0, ptr %2, align 1
  %3 = load i8, ptr %2, align 1
  %4 = zext i8 %3 to i64
  %5 = getelementptr inbounds [256 x i16], ptr @_ZN5clang8charinfo9InfoTableE, i64 0, i64 %4
  %6 = load i16, ptr %5, align 2
  %7 = zext i16 %6 to i32
  %8 = and i32 %7, 5
  %9 = icmp ne i32 %8, 0
  ret i1 %9
}

; Function Attrs: mustprogress nounwind uwtable
define internal void @_ZL16skipBlockCommentRPKcS0_(ptr noundef nonnull align 8 dereferenceable(8) %0, ptr noundef %1) #0 {
  %3 = alloca ptr, align 8
  %4 = alloca ptr, align 8
  store ptr %0, ptr %3, align 8
  store ptr %1, ptr %4, align 8
  %5 = load ptr, ptr %4, align 8
  %6 = load ptr, ptr %3, align 8
  %7 = load ptr, ptr %6, align 8
  %8 = ptrtoint ptr %5 to i64
  %9 = ptrtoint ptr %7 to i64
  %10 = sub i64 %8, %9
  %11 = icmp slt i64 %10, 4
  br i1 %11, label %12, label %15

12:                                               ; preds = %2
  %13 = load ptr, ptr %4, align 8
  %14 = load ptr, ptr %3, align 8
  store ptr %13, ptr %14, align 8
  br label %47

15:                                               ; preds = %2
  %16 = load ptr, ptr %3, align 8
  %17 = load ptr, ptr %16, align 8
  %18 = getelementptr inbounds i8, ptr %17, i64 3
  store ptr %18, ptr %16, align 8
  br label %19

19:                                               ; preds = %43, %15
  %20 = load ptr, ptr %3, align 8
  %21 = load ptr, ptr %20, align 8
  %22 = load ptr, ptr %4, align 8
  %23 = icmp ne ptr %21, %22
  br i1 %23, label %24, label %47

24:                                               ; preds = %19
  %25 = load ptr, ptr %3, align 8
  %26 = load ptr, ptr %25, align 8
  %27 = getelementptr inbounds i8, ptr %26, i64 -1
  %28 = load i8, ptr %27, align 1
  %29 = sext i8 %28 to i32
  %30 = icmp eq i32 %29, 42
  br i1 %30, label %31, label %42

31:                                               ; preds = %24
  %32 = load ptr, ptr %3, align 8
  %33 = load ptr, ptr %32, align 8
  %34 = getelementptr inbounds i8, ptr %33, i64 0
  %35 = load i8, ptr %34, align 1
  %36 = sext i8 %35 to i32
  %37 = icmp eq i32 %36, 47
  br i1 %37, label %38, label %42

38:                                               ; preds = %31
  %39 = load ptr, ptr %3, align 8
  %40 = load ptr, ptr %39, align 8
  %41 = getelementptr inbounds i8, ptr %40, i32 1
  store ptr %41, ptr %39, align 8
  br label %47

42:                                               ; preds = %31, %24
  br label %43

43:                                               ; preds = %42
  %44 = load ptr, ptr %3, align 8
  %45 = load ptr, ptr %44, align 8
  %46 = getelementptr inbounds i8, ptr %45, i32 1
  store ptr %46, ptr %44, align 8
  br label %19, !llvm.loop !13

47:                                               ; preds = %38, %19, %12
  ret void
}

; Function Attrs: mustprogress nounwind uwtable
define internal void @_ZL15skipLineCommentRPKcS0_(ptr noundef nonnull align 8 dereferenceable(8) %0, ptr noundef %1) #0 {
  %3 = alloca ptr, align 8
  %4 = alloca ptr, align 8
  store ptr %0, ptr %3, align 8
  store ptr %1, ptr %4, align 8
  %5 = load ptr, ptr %3, align 8
  %6 = load ptr, ptr %5, align 8
  %7 = getelementptr inbounds i8, ptr %6, i64 2
  store ptr %7, ptr %5, align 8
  %8 = load ptr, ptr %3, align 8
  %9 = load ptr, ptr %4, align 8
  call void @_ZL16skipToNewlineRawRPKcS0_(ptr noundef nonnull align 8 dereferenceable(8) %8, ptr noundef %9)
  ret void
}

; Function Attrs: mustprogress nounwind uwtable
define internal noundef i32 @_ZL11skipNewlineRPKcS0_(ptr noundef nonnull align 8 dereferenceable(8) %0, ptr noundef %1) #0 {
  %3 = alloca i32, align 4
  %4 = alloca ptr, align 8
  %5 = alloca ptr, align 8
  %6 = alloca i32, align 4
  store ptr %0, ptr %4, align 8
  store ptr %1, ptr %5, align 8
  %7 = load ptr, ptr %4, align 8
  %8 = load ptr, ptr %7, align 8
  %9 = load ptr, ptr %5, align 8
  %10 = icmp eq ptr %8, %9
  br i1 %10, label %11, label %12

11:                                               ; preds = %2
  store i32 0, ptr %3, align 4
  br label %23

12:                                               ; preds = %2
  %13 = load ptr, ptr %4, align 8
  %14 = load ptr, ptr %13, align 8
  %15 = load ptr, ptr %5, align 8
  %16 = call noundef i32 @_ZL5isEOLPKcS0_(ptr noundef %14, ptr noundef %15)
  store i32 %16, ptr %6, align 4
  %17 = load i32, ptr %6, align 4
  %18 = load ptr, ptr %4, align 8
  %19 = load ptr, ptr %18, align 8
  %20 = zext i32 %17 to i64
  %21 = getelementptr inbounds i8, ptr %19, i64 %20
  store ptr %21, ptr %18, align 8
  %22 = load i32, ptr %6, align 4
  store i32 %22, ptr %3, align 4
  br label %23

23:                                               ; preds = %12, %11
  %24 = load i32, ptr %3, align 4
  ret i32 %24
}

; Function Attrs: mustprogress nounwind willreturn memory(read) uwtable
define linkonce_odr hidden noundef zeroext i1 @_ZN5clang20isVerticalWhitespaceEh(i8 noundef zeroext %0) #5 comdat {
  %2 = alloca i8, align 1
  store i8 %0, ptr %2, align 1
  %3 = load i8, ptr %2, align 1
  %4 = zext i8 %3 to i64
  %5 = getelementptr inbounds [256 x i16], ptr @_ZN5clang8charinfo9InfoTableE, i64 0, i64 %4
  %6 = load i16, ptr %5, align 2
  %7 = zext i16 %6 to i32
  %8 = and i32 %7, 2
  %9 = icmp ne i32 %8, 0
  ret i1 %9
}

; Function Attrs: mustprogress nounwind uwtable
define internal void @_ZL14skipOverSpacesRPKcS0_(ptr noundef nonnull align 8 dereferenceable(8) %0, ptr noundef %1) #0 {
  %3 = alloca ptr, align 8
  %4 = alloca ptr, align 8
  store ptr %0, ptr %3, align 8
  store ptr %1, ptr %4, align 8
  br label %5

5:                                                ; preds = %17, %2
  %6 = load ptr, ptr %3, align 8
  %7 = load ptr, ptr %6, align 8
  %8 = load ptr, ptr %4, align 8
  %9 = icmp ne ptr %7, %8
  br i1 %9, label %10, label %15

10:                                               ; preds = %5
  %11 = load ptr, ptr %3, align 8
  %12 = load ptr, ptr %11, align 8
  %13 = load i8, ptr %12, align 1
  %14 = call noundef zeroext i1 @_ZN5clang22isHorizontalWhitespaceEh(i8 noundef zeroext %13) #9
  br label %15

15:                                               ; preds = %10, %5
  %16 = phi i1 [ false, %5 ], [ %14, %10 ]
  br i1 %16, label %17, label %21

17:                                               ; preds = %15
  %18 = load ptr, ptr %3, align 8
  %19 = load ptr, ptr %18, align 8
  %20 = getelementptr inbounds i8, ptr %19, i32 1
  store ptr %20, ptr %18, align 8
  br label %5, !llvm.loop !12

21:                                               ; preds = %15
  ret void
}

; Function Attrs: mustprogress nounwind uwtable
define internal void @_ZL14skipWhitespaceRPKcS0_(ptr noundef nonnull align 8 dereferenceable(8) %0, ptr noundef %1) #0 {
  %3 = alloca ptr, align 8
  %4 = alloca ptr, align 8
  store ptr %0, ptr %3, align 8
  store ptr %1, ptr %4, align 8
  br label %5

5:                                                ; preds = %61, %29, %2
  %6 = load ptr, ptr %3, align 8
  %7 = load ptr, ptr %4, align 8
  call void @_ZL14skipOverSpacesRPKcS0_(ptr noundef nonnull align 8 dereferenceable(8) %6, ptr noundef %7)
  %8 = load ptr, ptr %4, align 8
  %9 = load ptr, ptr %3, align 8
  %10 = load ptr, ptr %9, align 8
  %11 = ptrtoint ptr %8 to i64
  %12 = ptrtoint ptr %10 to i64
  %13 = sub i64 %11, %12
  %14 = icmp slt i64 %13, 2
  br i1 %14, label %15, label %16

15:                                               ; preds = %5
  br label %64

16:                                               ; preds = %5
  %17 = load ptr, ptr %3, align 8
  %18 = load ptr, ptr %17, align 8
  %19 = getelementptr inbounds i8, ptr %18, i64 0
  %20 = load i8, ptr %19, align 1
  %21 = sext i8 %20 to i32
  %22 = icmp eq i32 %21, 92
  br i1 %22, label %23, label %35

23:                                               ; preds = %16
  %24 = load ptr, ptr %3, align 8
  %25 = load ptr, ptr %24, align 8
  %26 = getelementptr inbounds i8, ptr %25, i64 1
  %27 = load i8, ptr %26, align 1
  %28 = call noundef zeroext i1 @_ZN5clang20isVerticalWhitespaceEh(i8 noundef zeroext %27) #9
  br i1 %28, label %29, label %35

29:                                               ; preds = %23
  %30 = load ptr, ptr %3, align 8
  %31 = load ptr, ptr %30, align 8
  %32 = getelementptr inbounds i8, ptr %31, i32 1
  store ptr %32, ptr %30, align 8
  %33 = load ptr, ptr %4, align 8
  %34 = call noundef i32 @_ZL11skipNewlineRPKcS0_(ptr noundef nonnull align 8 dereferenceable(8) %30, ptr noundef %33)
  br label %5, !llvm.loop !9

35:                                               ; preds = %23, %16
  %36 = load ptr, ptr %3, align 8
  %37 = load ptr, ptr %36, align 8
  %38 = getelementptr inbounds i8, ptr %37, i64 0
  %39 = load i8, ptr %38, align 1
  %40 = sext i8 %39 to i32
  %41 = icmp ne i32 %40, 47
  br i1 %41, label %42, label %43

42:                                               ; preds = %35
  br label %64

43:                                               ; preds = %35
  %44 = load ptr, ptr %3, align 8
  %45 = load ptr, ptr %44, align 8
  %46 = getelementptr inbounds i8, ptr %45, i64 1
  %47 = load i8, ptr %46, align 1
  %48 = sext i8 %47 to i32
  %49 = icmp eq i32 %48, 47
  br i1 %49, label %50, label %53

50:                                               ; preds = %43
  %51 = load ptr, ptr %3, align 8
  %52 = load ptr, ptr %4, align 8
  call void @_ZL15skipLineCommentRPKcS0_(ptr noundef nonnull align 8 dereferenceable(8) %51, ptr noundef %52)
  br label %64

53:                                               ; preds = %43
  %54 = load ptr, ptr %3, align 8
  %55 = load ptr, ptr %54, align 8
  %56 = getelementptr inbounds i8, ptr %55, i64 1
  %57 = load i8, ptr %56, align 1
  %58 = sext i8 %57 to i32
  %59 = icmp ne i32 %58, 42
  br i1 %59, label %60, label %61

60:                                               ; preds = %53
  br label %64

61:                                               ; preds = %53
  %62 = load ptr, ptr %3, align 8
  %63 = load ptr, ptr %4, align 8
  call void @_ZL16skipBlockCommentRPKcS0_(ptr noundef nonnull align 8 dereferenceable(8) %62, ptr noundef %63)
  br label %5, !llvm.loop !9

64:                                               ; preds = %60, %50, %42, %15
  ret void
}