; Function Attrs: mustprogress nofree norecurse nosync nounwind memory(read, argmem: readwrite, inaccessiblemem: none) uwtable
define internal fastcc void @_ZL14skipWhitespaceRPKcS0_(ptr noundef nonnull align 8 captures(none) dereferenceable(8) %0, ptr noundef %1) unnamed_addr #5 {
  %3 = ptrtoint ptr %1 to i64
  %.promoted = load ptr, ptr %0, align 8
  br label %4

4:                                                ; preds = %.backedge, %2
  %.sink.i31 = phi ptr [ %.sink.i32, %.backedge ], [ %.promoted, %2 ]
  %.not5.i = icmp eq ptr %.sink.i31, %1
  br i1 %.not5.i, label %_ZL14skipOverSpacesRPKcS0_.exit, label %.lr.ph.i

.lr.ph.i:                                         ; preds = %4, %11
  %5 = phi ptr [ %12, %11 ], [ %.sink.i31, %4 ]
  %6 = load i8, ptr %5, align 1
  %7 = zext i8 %6 to i64
  %8 = getelementptr inbounds nuw [256 x i16], ptr @_ZN5clang8charinfo9InfoTableE, i64 0, i64 %7
  %9 = load i16, ptr %8, align 2
  %10 = and i16 %9, 5
  %.not4.i = icmp eq i16 %10, 0
  br i1 %.not4.i, label %_ZL14skipOverSpacesRPKcS0_.exit, label %11

11:                                               ; preds = %.lr.ph.i
  %12 = getelementptr inbounds nuw i8, ptr %5, i64 1
  store ptr %12, ptr %0, align 8
  %.not.i = icmp eq ptr %12, %1
  br i1 %.not.i, label %_ZL14skipOverSpacesRPKcS0_.exit, label %.lr.ph.i, !llvm.loop !21

_ZL14skipOverSpacesRPKcS0_.exit:                  ; preds = %.lr.ph.i, %11, %4
  %.sink.i36 = phi ptr [ %.sink.i31, %4 ], [ %12, %11 ], [ %5, %.lr.ph.i ]
  %13 = ptrtoint ptr %.sink.i36 to i64
  %14 = sub i64 %3, %13
  %15 = icmp slt i64 %14, 2
  br i1 %15, label %_ZL15skipLineCommentRPKcS0_.exit, label %16

16:                                               ; preds = %_ZL14skipOverSpacesRPKcS0_.exit
  %17 = load i8, ptr %.sink.i36, align 1
  switch i8 %17, label %_ZL15skipLineCommentRPKcS0_.exit [
    i8 92, label %18
    i8 47, label %45
  ]

18:                                               ; preds = %16
  %19 = getelementptr inbounds nuw i8, ptr %.sink.i36, i64 1
  %20 = load i8, ptr %19, align 1
  %21 = zext i8 %20 to i64
  %22 = getelementptr inbounds nuw [256 x i16], ptr @_ZN5clang8charinfo9InfoTableE, i64 0, i64 %21
  %23 = load i16, ptr %22, align 2
  %24 = and i16 %23, 2
  %.not = icmp eq i16 %24, 0
  br i1 %.not, label %_ZL15skipLineCommentRPKcS0_.exit, label %25

25:                                               ; preds = %18
  store ptr %19, ptr %0, align 8
  %26 = icmp eq ptr %19, %1
  br i1 %26, label %.backedge, label %27

27:                                               ; preds = %25
  %28 = ptrtoint ptr %19 to i64
  %29 = sub i64 %3, %28
  %30 = icmp slt i64 %29, 2
  %.pre.i.i = load i8, ptr %19, align 1
  %31 = zext i8 %.pre.i.i to i64
  %32 = getelementptr inbounds nuw [256 x i16], ptr @_ZN5clang8charinfo9InfoTableE, i64 0, i64 %31
  %33 = load i16, ptr %32, align 2
  %34 = and i16 %33, 2
  %.not12.i.i = icmp eq i16 %34, 0
  %or.cond16.i.i = select i1 %30, i1 true, i1 %.not12.i.i
  br i1 %or.cond16.i.i, label %._crit_edge.i.i, label %35

35:                                               ; preds = %27
  %36 = getelementptr inbounds nuw i8, ptr %.sink.i36, i64 2
  %37 = load i8, ptr %36, align 1
  %38 = zext i8 %37 to i64
  %39 = getelementptr inbounds nuw [256 x i16], ptr @_ZN5clang8charinfo9InfoTableE, i64 0, i64 %38
  %40 = load i16, ptr %39, align 2
  %41 = and i16 %40, 2
  %.not13.i.i = icmp eq i16 %41, 0
  %.not.i.i = icmp eq i8 %.pre.i.i, %37
  %or.cond.i.i = or i1 %.not.i.i, %.not13.i.i
  br i1 %or.cond.i.i, label %._crit_edge.i.i, label %_ZL5isEOLPKcS0_.exit.i

._crit_edge.i.i:                                  ; preds = %35, %27
  %42 = lshr i16 %33, 1
  %.lobit.i.i = and i16 %42, 1
  %43 = zext nneg i16 %.lobit.i.i to i64
  br label %_ZL5isEOLPKcS0_.exit.i

_ZL5isEOLPKcS0_.exit.i:                           ; preds = %._crit_edge.i.i, %35
  %.0.i.i = phi i64 [ %43, %._crit_edge.i.i ], [ 2, %35 ]
  %44 = getelementptr inbounds nuw i8, ptr %19, i64 %.0.i.i
  br label %.backedge.sink.split

.backedge.sink.split:                             ; preds = %77, %87, %_ZL5isEOLPKcS0_.exit.i
  %.sink.i.sink = phi ptr [ %44, %_ZL5isEOLPKcS0_.exit.i ], [ %88, %87 ], [ %1, %77 ]
  store ptr %.sink.i.sink, ptr %0, align 8
  br label %.backedge

.backedge:                                        ; preds = %89, %.backedge.sink.split, %79, %25
  %.sink.i32 = phi ptr [ %19, %25 ], [ %80, %79 ], [ %.sink.i.sink, %.backedge.sink.split ], [ %90, %89 ]
  br label %4, !llvm.loop !22

45:                                               ; preds = %16
  %46 = getelementptr inbounds nuw i8, ptr %.sink.i36, i64 1
  %47 = load i8, ptr %46, align 1
  switch i8 %47, label %_ZL15skipLineCommentRPKcS0_.exit [
    i8 47, label %48
    i8 42, label %77
  ]

48:                                               ; preds = %45
  %49 = getelementptr inbounds nuw i8, ptr %.sink.i36, i64 2
  store ptr %49, ptr %0, align 8
  %50 = icmp eq ptr %49, %1
  br i1 %50, label %_ZL15skipLineCommentRPKcS0_.exit, label %.lr.ph.i.i

.lr.ph.i.i:                                       ; preds = %48, %74
  %.promoted3637.i.i = phi ptr [ %75, %74 ], [ %49, %48 ]
  %.pre.i.i.i = load i8, ptr %.promoted3637.i.i, align 1
  %51 = zext i8 %.pre.i.i.i to i64
  %52 = getelementptr inbounds nuw [256 x i16], ptr @_ZN5clang8charinfo9InfoTableE, i64 0, i64 %51
  %53 = load i16, ptr %52, align 2
  %54 = and i16 %53, 2
  %.not12.i.not.i.i = icmp eq i16 %54, 0
  br i1 %.not12.i.not.i.i, label %.preheader.i.i, label %_ZL15skipLineCommentRPKcS0_.exit

.preheader.i.i:                                   ; preds = %.lr.ph.i.i, %_ZL5isEOLPKcS0_.exit25.i.i
  %55 = phi ptr [ %56, %_ZL5isEOLPKcS0_.exit25.i.i ], [ %.promoted3637.i.i, %.lr.ph.i.i ]
  %56 = getelementptr inbounds nuw i8, ptr %55, i64 1
  store ptr %56, ptr %0, align 8
  %57 = icmp eq ptr %56, %1
  br i1 %57, label %_ZL15skipLineCommentRPKcS0_.exit, label %58

58:                                               ; preds = %.preheader.i.i
  %59 = ptrtoint ptr %56 to i64
  %60 = sub i64 %3, %59
  %61 = icmp slt i64 %60, 2
  %.pre.i16.i.i = load i8, ptr %56, align 1
  %62 = zext i8 %.pre.i16.i.i to i64
  %63 = getelementptr inbounds nuw [256 x i16], ptr @_ZN5clang8charinfo9InfoTableE, i64 0, i64 %62
  %64 = load i16, ptr %63, align 2
  %65 = and i16 %64, 2
  %.not12.i17.i.i = icmp eq i16 %65, 0
  %or.cond16.i18.i.i = select i1 %61, i1 true, i1 %.not12.i17.i.i
  br i1 %or.cond16.i18.i.i, label %_ZL5isEOLPKcS0_.exit25.i.i, label %66

66:                                               ; preds = %58
  %67 = getelementptr inbounds nuw i8, ptr %55, i64 2
  %68 = load i8, ptr %67, align 1
  %69 = zext i8 %68 to i64
  %70 = getelementptr inbounds nuw [256 x i16], ptr @_ZN5clang8charinfo9InfoTableE, i64 0, i64 %69
  %71 = load i16, ptr %70, align 2
  %72 = and i16 %71, 2
  %.not13.i19.i.i = icmp eq i16 %72, 0
  %.not.i20.i.i = icmp eq i8 %.pre.i16.i.i, %68
  %or.cond.i21.i.i = or i1 %.not.i20.i.i, %.not13.i19.i.i
  %spec.select.i.i = select i1 %or.cond.i21.i.i, i64 1, i64 2
  br label %_ZL5isEOLPKcS0_.exit25.thread.i.i

_ZL5isEOLPKcS0_.exit25.i.i:                       ; preds = %58
  br i1 %.not12.i17.i.i, label %.preheader.i.i, label %_ZL5isEOLPKcS0_.exit25.thread.i.i, !llvm.loop !13

_ZL5isEOLPKcS0_.exit25.thread.i.i:                ; preds = %_ZL5isEOLPKcS0_.exit25.i.i, %66
  %.0.i2230.i.i = phi i64 [ %spec.select.i.i, %66 ], [ 1, %_ZL5isEOLPKcS0_.exit25.i.i ]
  %73 = load i8, ptr %55, align 1
  %.not15.i.i = icmp eq i8 %73, 92
  br i1 %.not15.i.i, label %74, label %_ZL15skipLineCommentRPKcS0_.exit

74:                                               ; preds = %_ZL5isEOLPKcS0_.exit25.thread.i.i
  %75 = getelementptr inbounds nuw i8, ptr %56, i64 %.0.i2230.i.i
  store ptr %75, ptr %0, align 8
  %76 = icmp eq ptr %75, %1
  br i1 %76, label %_ZL15skipLineCommentRPKcS0_.exit, label %.lr.ph.i.i, !llvm.loop !15

77:                                               ; preds = %45
  %78 = icmp samesign ult i64 %14, 4
  br i1 %78, label %.backedge.sink.split, label %79

79:                                               ; preds = %77
  %80 = getelementptr inbounds nuw i8, ptr %.sink.i36, i64 3
  store ptr %80, ptr %0, align 8
  %.not12.i = icmp eq ptr %80, %1
  br i1 %.not12.i, label %.backedge, label %.lr.ph.i16

.lr.ph.i16:                                       ; preds = %79, %89
  %storemerge13.i = phi ptr [ %90, %89 ], [ %80, %79 ]
  %81 = getelementptr inbounds i8, ptr %storemerge13.i, i64 -1
  %82 = load i8, ptr %81, align 1
  %83 = icmp eq i8 %82, 42
  br i1 %83, label %84, label %89

84:                                               ; preds = %.lr.ph.i16
  %85 = load i8, ptr %storemerge13.i, align 1
  %86 = icmp eq i8 %85, 47
  br i1 %86, label %87, label %89

87:                                               ; preds = %84
  %88 = getelementptr inbounds nuw i8, ptr %storemerge13.i, i64 1
  br label %.backedge.sink.split

89:                                               ; preds = %84, %.lr.ph.i16
  %90 = getelementptr inbounds nuw i8, ptr %storemerge13.i, i64 1
  store ptr %90, ptr %0, align 8
  %.not.i17 = icmp eq ptr %90, %1
  br i1 %.not.i17, label %.backedge, label %.lr.ph.i16, !llvm.loop !23

_ZL15skipLineCommentRPKcS0_.exit:                 ; preds = %16, %18, %45, %_ZL14skipOverSpacesRPKcS0_.exit, %74, %_ZL5isEOLPKcS0_.exit25.thread.i.i, %.lr.ph.i.i, %.preheader.i.i, %48
  ret void
}